; Function Attrs: nounwind uwtable
define internal fastcc noundef i32 @emit_byte(ptr nocapture noundef %0, i8 noundef zeroext %1) unnamed_addr #0 {
  %3 = getelementptr inbounds i8, ptr %0, i64 88
  %4 = load ptr, ptr %3, align 8
  %5 = getelementptr inbounds i8, ptr %4, i64 8
  %6 = load i64, ptr %5, align 8
  %7 = add i64 %6, 2
  %8 = icmp ult i64 %7, 4081
  br i1 %8, label %9, label %12

9:                                                ; preds = %2
  %10 = getelementptr inbounds i8, ptr %4, i64 16
  %11 = getelementptr inbounds i8, ptr %10, i64 %6
  store i64 %7, ptr %5, align 8
  br label %22

12:                                               ; preds = %2
  %13 = getelementptr inbounds i8, ptr %0, i64 72
  %14 = load ptr, ptr %13, align 8
  %.val.i = load ptr, ptr %14, align 8
  %15 = getelementptr i8, ptr %14, i64 16
  %.val18.i = load ptr, ptr %15, align 8
  %16 = tail call ptr %.val.i(i64 noundef 4096, ptr noundef %.val18.i) #18
  %.not.i = icmp eq ptr %16, null
  br i1 %.not.i, label %21, label %17

17:                                               ; preds = %12
  %18 = load ptr, ptr %3, align 8
  store ptr %18, ptr %16, align 8
  store ptr %16, ptr %3, align 8
  %19 = getelementptr inbounds i8, ptr %16, i64 8
  store i64 2, ptr %19, align 8
  %20 = getelementptr inbounds i8, ptr %16, i64 16
  br label %22

21:                                               ; preds = %12
  store i32 2, ptr %0, align 8
  br label %27

22:                                               ; preds = %9, %17
  %.0.i.ph = phi ptr [ %20, %17 ], [ %11, %9 ]
  %23 = getelementptr inbounds i8, ptr %.0.i.ph, i64 1
  store i8 1, ptr %.0.i.ph, align 1
  %24 = getelementptr inbounds i8, ptr %0, i64 128
  %25 = load i64, ptr %24, align 8
  %26 = add i64 %25, 1
  store i64 %26, ptr %24, align 8
  store i8 %1, ptr %23, align 1
  br label %27

27:                                               ; preds = %22, %21
  %.0 = phi i32 [ 2, %21 ], [ 0, %22 ]
  ret i32 %.0
}